target datalayout = "e-m:e-p270:32:32-p271:32:32-p272:64:64-i64:64-i128:128-f80:128-n8:16:32:64-S128"
target triple = "x86_64-pc-linux-gnu"

%struct.jv = type { i8, i8, i16, i32, %union.anon }
%union.anon = type { ptr }

@.str.155 = private unnamed_addr constant [11 x i8] c"%s (%s) %s\00", align 1
@.str.164 = private unnamed_addr constant [31 x i8] c"implode input must be an array\00", align 1
@.str.165 = private unnamed_addr constant [57 x i8] c"can't be imploded, unicode codepoint needs to be numeric\00", align 1

; Function Attrs: nounwind uwtable
define internal { i64, ptr } @type_error(i64 %0, ptr %1, ptr noundef %2) #0 {
  %4 = alloca %struct.jv, align 8
  %5 = alloca %struct.jv, align 8
  %6 = alloca ptr, align 8
  %7 = alloca [15 x i8], align 1
  %8 = alloca ptr, align 8
  %9 = alloca %struct.jv, align 8
  %10 = getelementptr inbounds nuw { i64, ptr }, ptr %5, i32 0, i32 0
  store i64 %0, ptr %10, align 8
  %11 = getelementptr inbounds nuw { i64, ptr }, ptr %5, i32 0, i32 1
  store ptr %1, ptr %11, align 8
  store ptr %2, ptr %6, align 8, !tbaa !12
  call void @llvm.lifetime.start.p0(i64 15, ptr %7) #10
  call void @llvm.lifetime.start.p0(i64 8, ptr %8) #10
  %12 = getelementptr inbounds nuw { i64, ptr }, ptr %5, i32 0, i32 0
  %13 = load i64, ptr %12, align 8
  %14 = getelementptr inbounds nuw { i64, ptr }, ptr %5, i32 0, i32 1
  %15 = load ptr, ptr %14, align 8
  %16 = call i32 @jv_get_kind(i64 %13, ptr %15)
  %17 = call ptr @jv_kind_name(i32 noundef %16)
  store ptr %17, ptr %8, align 8, !tbaa !12
  %18 = load ptr, ptr %8, align 8, !tbaa !12
  %19 = getelementptr inbounds [15 x i8], ptr %7, i64 0, i64 0
  %20 = getelementptr inbounds nuw { i64, ptr }, ptr %5, i32 0, i32 0
  %21 = load i64, ptr %20, align 8
  %22 = getelementptr inbounds nuw { i64, ptr }, ptr %5, i32 0, i32 1
  %23 = load ptr, ptr %22, align 8
  %24 = call ptr @jv_dump_string_trunc(i64 %21, ptr %23, ptr noundef %19, i64 noundef 15)
  %25 = load ptr, ptr %6, align 8, !tbaa !12
  %26 = call { i64, ptr } (ptr, ...) @jv_string_fmt(ptr noundef @.str.155, ptr noundef %18, ptr noundef %24, ptr noundef %25)
  %27 = getelementptr inbounds nuw { i64, ptr }, ptr %9, i32 0, i32 0
  %28 = extractvalue { i64, ptr } %26, 0
  store i64 %28, ptr %27, align 8
  %29 = getelementptr inbounds nuw { i64, ptr }, ptr %9, i32 0, i32 1
  %30 = extractvalue { i64, ptr } %26, 1
  store ptr %30, ptr %29, align 8
  %31 = getelementptr inbounds nuw { i64, ptr }, ptr %9, i32 0, i32 0
  %32 = load i64, ptr %31, align 8
  %33 = getelementptr inbounds nuw { i64, ptr }, ptr %9, i32 0, i32 1
  %34 = load ptr, ptr %33, align 8
  %35 = call { i64, ptr } @jv_invalid_with_msg(i64 %32, ptr %34)
  %36 = getelementptr inbounds nuw { i64, ptr }, ptr %4, i32 0, i32 0
  %37 = extractvalue { i64, ptr } %35, 0
  store i64 %37, ptr %36, align 8
  %38 = getelementptr inbounds nuw { i64, ptr }, ptr %4, i32 0, i32 1
  %39 = extractvalue { i64, ptr } %35, 1
  store ptr %39, ptr %38, align 8
  call void @llvm.lifetime.end.p0(i64 8, ptr %8) #10
  call void @llvm.lifetime.end.p0(i64 15, ptr %7) #10
  %40 = load { i64, ptr }, ptr %4, align 8
  ret { i64, ptr } %40
}

; Function Attrs: inlinehint nounwind uwtable
define internal { i64, ptr } @ret_error(i64 %0, ptr %1, i64 %2, ptr %3) #7 {
  %5 = alloca %struct.jv, align 8
  %6 = alloca %struct.jv, align 8
  %7 = alloca %struct.jv, align 8
  %8 = getelementptr inbounds nuw { i64, ptr }, ptr %6, i32 0, i32 0
  store i64 %0, ptr %8, align 8
  %9 = getelementptr inbounds nuw { i64, ptr }, ptr %6, i32 0, i32 1
  store ptr %1, ptr %9, align 8
  %10 = getelementptr inbounds nuw { i64, ptr }, ptr %7, i32 0, i32 0
  store i64 %2, ptr %10, align 8
  %11 = getelementptr inbounds nuw { i64, ptr }, ptr %7, i32 0, i32 1
  store ptr %3, ptr %11, align 8
  %12 = getelementptr inbounds nuw { i64, ptr }, ptr %6, i32 0, i32 0
  %13 = load i64, ptr %12, align 8
  %14 = getelementptr inbounds nuw { i64, ptr }, ptr %6, i32 0, i32 1
  %15 = load ptr, ptr %14, align 8
  call void @jv_free(i64 %13, ptr %15)
  %16 = getelementptr inbounds nuw { i64, ptr }, ptr %7, i32 0, i32 0
  %17 = load i64, ptr %16, align 8
  %18 = getelementptr inbounds nuw { i64, ptr }, ptr %7, i32 0, i32 1
  %19 = load ptr, ptr %18, align 8
  %20 = call { i64, ptr } @jv_invalid_with_msg(i64 %17, ptr %19)
  %21 = getelementptr inbounds nuw { i64, ptr }, ptr %5, i32 0, i32 0
  %22 = extractvalue { i64, ptr } %20, 0
  store i64 %22, ptr %21, align 8
  %23 = getelementptr inbounds nuw { i64, ptr }, ptr %5, i32 0, i32 1
  %24 = extractvalue { i64, ptr } %20, 1
  store ptr %24, ptr %23, align 8
  %25 = load { i64, ptr }, ptr %5, align 8
  ret { i64, ptr } %25
}

; Function Attrs: nounwind uwtable
define internal { i64, ptr } @f_string_implode(ptr noundef %0, i64 %1, ptr %2) #0 {
  %4 = alloca %struct.jv, align 8
  %5 = alloca %struct.jv, align 8
  %6 = alloca ptr, align 8
  %7 = alloca %struct.jv, align 8
  %8 = alloca i32, align 4
  %9 = alloca %struct.jv, align 8
  %10 = alloca %struct.jv, align 8
  %11 = alloca i32, align 4
  %12 = alloca i32, align 4
  %13 = alloca %struct.jv, align 8
  %14 = alloca %struct.jv, align 8
  %15 = alloca i32, align 4
  %16 = alloca %struct.jv, align 8
  %17 = getelementptr inbounds nuw { i64, ptr }, ptr %5, i32 0, i32 0
  store i64 %1, ptr %17, align 8
  %18 = getelementptr inbounds nuw { i64, ptr }, ptr %5, i32 0, i32 1
  store ptr %2, ptr %18, align 8
  store ptr %0, ptr %6, align 8, !tbaa !25
  %19 = getelementptr inbounds nuw { i64, ptr }, ptr %5, i32 0, i32 0
  %20 = load i64, ptr %19, align 8
  %21 = getelementptr inbounds nuw { i64, ptr }, ptr %5, i32 0, i32 1
  %22 = load ptr, ptr %21, align 8
  %23 = call i32 @jv_get_kind(i64 %20, ptr %22)
  %24 = icmp ne i32 %23, 6
  br i1 %24, label %25, label %44

25:                                               ; preds = %3
  %26 = call { i64, ptr } @jv_string(ptr noundef @.str.164)
  %27 = getelementptr inbounds nuw { i64, ptr }, ptr %7, i32 0, i32 0
  %28 = extractvalue { i64, ptr } %26, 0
  store i64 %28, ptr %27, align 8
  %29 = getelementptr inbounds nuw { i64, ptr }, ptr %7, i32 0, i32 1
  %30 = extractvalue { i64, ptr } %26, 1
  store ptr %30, ptr %29, align 8
  %31 = getelementptr inbounds nuw { i64, ptr }, ptr %5, i32 0, i32 0
  %32 = load i64, ptr %31, align 8
  %33 = getelementptr inbounds nuw { i64, ptr }, ptr %5, i32 0, i32 1
  %34 = load ptr, ptr %33, align 8
  %35 = getelementptr inbounds nuw { i64, ptr }, ptr %7, i32 0, i32 0
  %36 = load i64, ptr %35, align 8
  %37 = getelementptr inbounds nuw { i64, ptr }, ptr %7, i32 0, i32 1
  %38 = load ptr, ptr %37, align 8
  %39 = call { i64, ptr } @ret_error(i64 %32, ptr %34, i64 %36, ptr %38)
  %40 = getelementptr inbounds nuw { i64, ptr }, ptr %4, i32 0, i32 0
  %41 = extractvalue { i64, ptr } %39, 0
  store i64 %41, ptr %40, align 8
  %42 = getelementptr inbounds nuw { i64, ptr }, ptr %4, i32 0, i32 1
  %43 = extractvalue { i64, ptr } %39, 1
  store ptr %43, ptr %42, align 8
  br label %169

44:                                               ; preds = %3
  call void @llvm.lifetime.start.p0(i64 4, ptr %8) #10
  %45 = getelementptr inbounds nuw { i64, ptr }, ptr %5, i32 0, i32 0
  %46 = load i64, ptr %45, align 8
  %47 = getelementptr inbounds nuw { i64, ptr }, ptr %5, i32 0, i32 1
  %48 = load ptr, ptr %47, align 8
  %49 = call { i64, ptr } @jv_copy(i64 %46, ptr %48)
  %50 = getelementptr inbounds nuw { i64, ptr }, ptr %9, i32 0, i32 0
  %51 = extractvalue { i64, ptr } %49, 0
  store i64 %51, ptr %50, align 8
  %52 = getelementptr inbounds nuw { i64, ptr }, ptr %9, i32 0, i32 1
  %53 = extractvalue { i64, ptr } %49, 1
  store ptr %53, ptr %52, align 8
  %54 = getelementptr inbounds nuw { i64, ptr }, ptr %9, i32 0, i32 0
  %55 = load i64, ptr %54, align 8
  %56 = getelementptr inbounds nuw { i64, ptr }, ptr %9, i32 0, i32 1
  %57 = load ptr, ptr %56, align 8
  %58 = call i32 @jv_array_length(i64 %55, ptr %57)
  store i32 %58, ptr %8, align 4, !tbaa !10
  call void @llvm.lifetime.start.p0(i64 16, ptr %10) #10
  %59 = load i32, ptr %8, align 4, !tbaa !10
  %60 = call { i64, ptr } @jv_string_empty(i32 noundef %59)
  %61 = getelementptr inbounds nuw { i64, ptr }, ptr %10, i32 0, i32 0
  %62 = extractvalue { i64, ptr } %60, 0
  store i64 %62, ptr %61, align 8
  %63 = getelementptr inbounds nuw { i64, ptr }, ptr %10, i32 0, i32 1
  %64 = extractvalue { i64, ptr } %60, 1
  store ptr %64, ptr %63, align 8
  call void @llvm.lifetime.start.p0(i64 4, ptr %11) #10
  store i32 0, ptr %11, align 4, !tbaa !10
  br label %65

65:                                               ; preds = %158, %44
  %66 = load i32, ptr %11, align 4, !tbaa !10
  %67 = load i32, ptr %8, align 4, !tbaa !10
  %68 = icmp slt i32 %66, %67
  br i1 %68, label %70, label %69

69:                                               ; preds = %65
  store i32 2, ptr %12, align 4
  br label %161

70:                                               ; preds = %65
  call void @llvm.lifetime.start.p0(i64 16, ptr %13) #10
  %71 = getelementptr inbounds nuw { i64, ptr }, ptr %5, i32 0, i32 0
  %72 = load i64, ptr %71, align 8
  %73 = getelementptr inbounds nuw { i64, ptr }, ptr %5, i32 0, i32 1
  %74 = load ptr, ptr %73, align 8
  %75 = call { i64, ptr } @jv_copy(i64 %72, ptr %74)
  %76 = getelementptr inbounds nuw { i64, ptr }, ptr %14, i32 0, i32 0
  %77 = extractvalue { i64, ptr } %75, 0
  store i64 %77, ptr %76, align 8
  %78 = getelementptr inbounds nuw { i64, ptr }, ptr %14, i32 0, i32 1
  %79 = extractvalue { i64, ptr } %75, 1
  store ptr %79, ptr %78, align 8
  %80 = load i32, ptr %11, align 4, !tbaa !10
  %81 = getelementptr inbounds nuw { i64, ptr }, ptr %14, i32 0, i32 0
  %82 = load i64, ptr %81, align 8
  %83 = getelementptr inbounds nuw { i64, ptr }, ptr %14, i32 0, i32 1
  %84 = load ptr, ptr %83, align 8
  %85 = call { i64, ptr } @jv_array_get(i64 %82, ptr %84, i32 noundef %80)
  %86 = getelementptr inbounds nuw { i64, ptr }, ptr %13, i32 0, i32 0
  %87 = extractvalue { i64, ptr } %85, 0
  store i64 %87, ptr %86, align 8
  %88 = getelementptr inbounds nuw { i64, ptr }, ptr %13, i32 0, i32 1
  %89 = extractvalue { i64, ptr } %85, 1
  store ptr %89, ptr %88, align 8
  %90 = getelementptr inbounds nuw { i64, ptr }, ptr %13, i32 0, i32 0
  %91 = load i64, ptr %90, align 8
  %92 = getelementptr inbounds nuw { i64, ptr }, ptr %13, i32 0, i32 1
  %93 = load ptr, ptr %92, align 8
  %94 = call i32 @jv_get_kind(i64 %91, ptr %93)
  %95 = icmp ne i32 %94, 4
  br i1 %95, label %103, label %96

96:                                               ; preds = %70
  %97 = getelementptr inbounds nuw { i64, ptr }, ptr %13, i32 0, i32 0
  %98 = load i64, ptr %97, align 8
  %99 = getelementptr inbounds nuw { i64, ptr }, ptr %13, i32 0, i32 1
  %100 = load ptr, ptr %99, align 8
  %101 = call i32 @jvp_number_is_nan(i64 %98, ptr %100)
  %102 = icmp ne i32 %101, 0
  br i1 %102, label %103, label %121

103:                                              ; preds = %96, %70
  %104 = getelementptr inbounds nuw { i64, ptr }, ptr %5, i32 0, i32 0
  %105 = load i64, ptr %104, align 8
  %106 = getelementptr inbounds nuw { i64, ptr }, ptr %5, i32 0, i32 1
  %107 = load ptr, ptr %106, align 8
  call void @jv_free(i64 %105, ptr %107)
  %108 = getelementptr inbounds nuw { i64, ptr }, ptr %10, i32 0, i32 0
  %109 = load i64, ptr %108, align 8
  %110 = getelementptr inbounds nuw { i64, ptr }, ptr %10, i32 0, i32 1
  %111 = load ptr, ptr %110, align 8
  call void @jv_free(i64 %109, ptr %111)
  %112 = getelementptr inbounds nuw { i64, ptr }, ptr %13, i32 0, i32 0
  %113 = load i64, ptr %112, align 8
  %114 = getelementptr inbounds nuw { i64, ptr }, ptr %13, i32 0, i32 1
  %115 = load ptr, ptr %114, align 8
  %116 = call { i64, ptr } @type_error(i64 %113, ptr %115, ptr noundef @.str.165)
  %117 = getelementptr inbounds nuw { i64, ptr }, ptr %4, i32 0, i32 0
  %118 = extractvalue { i64, ptr } %116, 0
  store i64 %118, ptr %117, align 8
  %119 = getelementptr inbounds nuw { i64, ptr }, ptr %4, i32 0, i32 1
  %120 = extractvalue { i64, ptr } %116, 1
  store ptr %120, ptr %119, align 8
  store i32 1, ptr %12, align 4
  br label %155

121:                                              ; preds = %96
  call void @llvm.lifetime.start.p0(i64 4, ptr %15) #10
  %122 = getelementptr inbounds nuw { i64, ptr }, ptr %13, i32 0, i32 0
  %123 = load i64, ptr %122, align 8
  %124 = getelementptr inbounds nuw { i64, ptr }, ptr %13, i32 0, i32 1
  %125 = load ptr, ptr %124, align 8
  %126 = call double @jv_number_value(i64 %123, ptr %125)
  %127 = fptosi double %126 to i32
  store i32 %127, ptr %15, align 4, !tbaa !10
  %128 = getelementptr inbounds nuw { i64, ptr }, ptr %13, i32 0, i32 0
  %129 = load i64, ptr %128, align 8
  %130 = getelementptr inbounds nuw { i64, ptr }, ptr %13, i32 0, i32 1
  %131 = load ptr, ptr %130, align 8
  call void @jv_free(i64 %129, ptr %131)
  %132 = load i32, ptr %15, align 4, !tbaa !10
  %133 = icmp slt i32 %132, 0
  br i1 %133, label %143, label %134

134:                                              ; preds = %121
  %135 = load i32, ptr %15, align 4, !tbaa !10
  %136 = icmp sgt i32 %135, 1114111
  br i1 %136, label %143, label %137

137:                                              ; preds = %134
  %138 = load i32, ptr %15, align 4, !tbaa !10
  %139 = icmp sge i32 %138, 55296
  br i1 %139, label %140, label %144

140:                                              ; preds = %137
  %141 = load i32, ptr %15, align 4, !tbaa !10
  %142 = icmp sle i32 %141, 57343
  br i1 %142, label %143, label %144

143:                                              ; preds = %140, %134, %121
  store i32 65533, ptr %15, align 4, !tbaa !10
  br label %144

144:                                              ; preds = %143, %140, %137
  call void @llvm.lifetime.start.p0(i64 16, ptr %16) #10
  %145 = load i32, ptr %15, align 4, !tbaa !10
  %146 = getelementptr inbounds nuw { i64, ptr }, ptr %10, i32 0, i32 0
  %147 = load i64, ptr %146, align 8
  %148 = getelementptr inbounds nuw { i64, ptr }, ptr %10, i32 0, i32 1
  %149 = load ptr, ptr %148, align 8
  %150 = call { i64, ptr } @jv_string_append_codepoint(i64 %147, ptr %149, i32 noundef %145)
  %151 = getelementptr inbounds nuw { i64, ptr }, ptr %16, i32 0, i32 0
  %152 = extractvalue { i64, ptr } %150, 0
  store i64 %152, ptr %151, align 8
  %153 = getelementptr inbounds nuw { i64, ptr }, ptr %16, i32 0, i32 1
  %154 = extractvalue { i64, ptr } %150, 1
  store ptr %154, ptr %153, align 8
  call void @llvm.memcpy.p0.p0.i64(ptr align 8 %10, ptr align 8 %16, i64 16, i1 false), !tbaa.struct !4
  call void @llvm.lifetime.end.p0(i64 16, ptr %16) #10
  call void @llvm.lifetime.end.p0(i64 4, ptr %15) #10
  store i32 0, ptr %12, align 4
  br label %155

155:                                              ; preds = %144, %103
  call void @llvm.lifetime.end.p0(i64 16, ptr %13) #10
  %156 = load i32, ptr %12, align 4
  switch i32 %156, label %161 [
    i32 0, label %157
  ]

157:                                              ; preds = %155
  br label %158

158:                                              ; preds = %157
  %159 = load i32, ptr %11, align 4, !tbaa !10
  %160 = add nsw i32 %159, 1
  store i32 %160, ptr %11, align 4, !tbaa !10
  br label %65, !llvm.loop !39

161:                                              ; preds = %155, %69
  call void @llvm.lifetime.end.p0(i64 4, ptr %11) #10
  %162 = load i32, ptr %12, align 4
  switch i32 %162, label %168 [
    i32 2, label %163
  ]

163:                                              ; preds = %161
  %164 = getelementptr inbounds nuw { i64, ptr }, ptr %5, i32 0, i32 0
  %165 = load i64, ptr %164, align 8
  %166 = getelementptr inbounds nuw { i64, ptr }, ptr %5, i32 0, i32 1
  %167 = load ptr, ptr %166, align 8
  call void @jv_free(i64 %165, ptr %167)
  call void @llvm.memcpy.p0.p0.i64(ptr align 8 %4, ptr align 8 %10, i64 16, i1 false), !tbaa.struct !4
  store i32 1, ptr %12, align 4
  br label %168

168:                                              ; preds = %163, %161
  call void @llvm.lifetime.end.p0(i64 16, ptr %10) #10
  call void @llvm.lifetime.end.p0(i64 4, ptr %8) #10
  br label %169

169:                                              ; preds = %168, %25
  %170 = load { i64, ptr }, ptr %4, align 8
  ret { i64, ptr } %170
}