; Function Attrs: nounwind uwtable
define internal { i64, ptr } @f_string_implode(ptr readnone captures(none) %0, i64 %1, ptr %2) #0 {
  %4 = alloca [15 x i8], align 1
  %5 = tail call i32 @jv_get_kind(i64 %1, ptr %2) #14
  %.not = icmp eq i32 %5, 6
  br i1 %.not, label %11, label %6

6:                                                ; preds = %3
  %7 = tail call { i64, ptr } @jv_string(ptr noundef nonnull @.str.164) #14
  %8 = extractvalue { i64, ptr } %7, 0
  %9 = extractvalue { i64, ptr } %7, 1
  tail call void @jv_free(i64 %1, ptr %2) #14
  %10 = tail call { i64, ptr } @jv_invalid_with_msg(i64 %8, ptr %9) #14
  br label %39

11:                                               ; preds = %3
  %12 = tail call { i64, ptr } @jv_copy(i64 %1, ptr %2) #14
  %13 = extractvalue { i64, ptr } %12, 0
  %14 = extractvalue { i64, ptr } %12, 1
  %15 = tail call i32 @jv_array_length(i64 %13, ptr %14) #14
  %16 = tail call { i64, ptr } @jv_string_empty(i32 noundef %15) #14
  %.not5275 = icmp sgt i32 %15, 0
  br i1 %.not5275, label %.lr.ph, label %._crit_edge

.lr.ph:                                           ; preds = %11, %33
  %.pn = phi { i64, ptr } [ %37, %33 ], [ %16, %11 ]
  %.04776 = phi i32 [ %38, %33 ], [ 0, %11 ]
  %.sroa.7.077 = extractvalue { i64, ptr } %.pn, 1
  %.sroa.024.078 = extractvalue { i64, ptr } %.pn, 0
  %17 = tail call { i64, ptr } @jv_copy(i64 %1, ptr %2) #14
  %18 = extractvalue { i64, ptr } %17, 0
  %19 = extractvalue { i64, ptr } %17, 1
  %20 = tail call { i64, ptr } @jv_array_get(i64 %18, ptr %19, i32 noundef %.04776) #14
  %21 = extractvalue { i64, ptr } %20, 0
  %22 = extractvalue { i64, ptr } %20, 1
  %23 = tail call i32 @jv_get_kind(i64 %21, ptr %22) #14
  %.not50 = icmp eq i32 %23, 4
  br i1 %.not50, label %24, label %.thread63

24:                                               ; preds = %.lr.ph
  %25 = tail call i32 @jvp_number_is_nan(i64 %21, ptr %22) #14
  %.not51 = icmp eq i32 %25, 0
  br i1 %.not51, label %33, label %.thread63

.thread63:                                        ; preds = %24, %.lr.ph
  tail call void @jv_free(i64 %1, ptr %2) #14
  tail call void @jv_free(i64 %.sroa.024.078, ptr %.sroa.7.077) #14
  call void @llvm.lifetime.start.p0(i64 15, ptr nonnull %4) #14
  %26 = tail call i32 @jv_get_kind(i64 %21, ptr %22) #14
  %27 = tail call ptr @jv_kind_name(i32 noundef %26) #14
  %28 = call ptr @jv_dump_string_trunc(i64 %21, ptr %22, ptr noundef nonnull %4, i64 noundef 15) #14
  %29 = call { i64, ptr } (ptr, ...) @jv_string_fmt(ptr noundef nonnull @.str.155, ptr noundef %27, ptr noundef %28, ptr noundef nonnull @.str.165) #14
  %30 = extractvalue { i64, ptr } %29, 0
  %31 = extractvalue { i64, ptr } %29, 1
  %32 = call { i64, ptr } @jv_invalid_with_msg(i64 %30, ptr %31) #14
  call void @llvm.lifetime.end.p0(i64 15, ptr nonnull %4) #14
  br label %39

33:                                               ; preds = %24
  %34 = tail call double @jv_number_value(i64 %21, ptr %22) #14
  %35 = fptosi double %34 to i32
  tail call void @jv_free(i64 %21, ptr %22) #14
  %or.cond = icmp ugt i32 %35, 1114111
  %36 = and i32 %35, 2095104
  %or.cond4 = icmp eq i32 %36, 55296
  %or.cond53 = or i1 %or.cond, %or.cond4
  %.0 = select i1 %or.cond53, i32 65533, i32 %35
  %37 = tail call { i64, ptr } @jv_string_append_codepoint(i64 %.sroa.024.078, ptr %.sroa.7.077, i32 noundef %.0) #14
  %38 = add nuw nsw i32 %.04776, 1
  %exitcond.not = icmp eq i32 %38, %15
  br i1 %exitcond.not, label %._crit_edge, label %.lr.ph, !llvm.loop !23

._crit_edge:                                      ; preds = %33, %11
  %.pn.lcssa = phi { i64, ptr } [ %16, %11 ], [ %37, %33 ]
  tail call void @jv_free(i64 %1, ptr %2) #14
  br label %39

39:                                               ; preds = %._crit_edge, %.thread63, %6
  %.fca.1.insert.merged = phi { i64, ptr } [ %10, %6 ], [ %.pn.lcssa, %._crit_edge ], [ %32, %.thread63 ]
  ret { i64, ptr } %.fca.1.insert.merged
}